(lp0
(lp1
I168
aI168
aI0
aI0
aa(lp2
I336
aI168
aI0
aI0
aa(lp3
I504
aI168
aI0
aI0
aa(lp4
I840
aI168
aI0
aI0
aa(lp5
I1008
aI168
aI0
aI0
aa(lp6
I1344
aI168
aI0
aI0
aa(lp7
I1344
aI336
aI1
aI0
aa(lp8
I1176
aI336
aI1
aI0
aa(lp9
I1008
aI336
aI1
aI0
aa(lp10
I840
aI336
aI1
aI0
aa(lp11
I672
aI336
aI1
aI0
aa(lp12
I504
aI336
aI1
aI0
aa(lp13
I336
aI336
aI1
aI0
aa(lp14
I168
aI336
aI1
aI0
aa(lp15
I0
aI336
aI1
aI0
aa(lp16
I-168
aI336
aI1
aI0
aa(lp17
I-336
aI336
aI1
aI0
aa(lp18
I-504
aI336
aI1
aI0
aa(lp19
I-672
aI336
aI1
aI0
aa(lp20
I-672
aI168
aI0
aI0
aa(lp21
I-168
aI168
aI0
aI0
aa(lp22
I-336
aI168
aI0
aI0
aa(lp23
I-504
aI168
aI4
aI1
aa(lp24
I-336
aI-336
aI4
a(lp25
I-336
aI-336
aI4
a(lp26
I-336
aI-336
aI4
a(lp27
I-336
aI-336
aI4
a(lp28
I-336
aI-336
aI4
a(lp29
I-336
aI-336
aI4
a(lp30
I-336
aI-336
aI4
a(lp31
I-336
aI-336
aI4
a(lp32
I-336
aI-336
aI4
a(lp33
I-336
aI-336
aI4
a(lp34
I-336
aI-336
aI4
a(lp35
I-336
aI-336
aI4
a(lp36
I-336
aI-336
aI4
a(lp37
I-336
aI-336
aI4
a(lp38
I-336
aI-336
aI4
a(lp39
I-336
aI-336
aI4
a(lp40
I-336
aI-336
aI4
aI0
aaaaaaaaaaaaaaaaaa(lp41
I1176
aI168
aI4
aI1
aa(lp42
I1008
aI-336
aI4
aI0
aa(lp43
I336
aI-504
aI4
aI0
aa(lp44
I336
aI0
aI3
aI0
aa(lp45
I-672
aI0
aI3
a(lp46
I-672
aI0
aI3
a(lp47
I-672
aI0
aI3
a(lp48
I-672
aI0
aI3
a(lp49
I-672
aI0
aI3
a(lp50
I-672
aI0
aI3
a(lp51
I-672
aI0
aI3
a(lp52
I-672
aI0
aI3
a(lp53
I-672
aI0
aI3
a(lp54
I-672
aI0
aI3
a(lp55
I-672
aI0
aI3
a(lp56
I-672
aI0
aI3
a(lp57
I-672
aI0
aI3
a(lp58
I-672
aI0
aI3
a(lp59
I-672
aI0
aI3
a(lp60
I-672
aI0
aI3
a(lp61
I-672
aI0
aI3
aI0
aaaaaaaaaaaaaaaaaa(lp62
I1344
aI0
aI3
a(lp63
I1344
aI0
aI3
a(lp64
I1344
aI0
aI3
a(lp65
I1344
aI0
aI3
a(lp66
I1344
aI0
aI3
a(lp67
I1344
aI0
aI3
a(lp68
I1344
aI0
aI3
a(lp69
I1344
aI0
aI3
a(lp70
I1344
aI0
aI3
a(lp71
I1344
aI0
aI3
a(lp72
I1344
aI0
aI3
a(lp73
I1344
aI0
aI3
a(lp74
I1344
aI0
aI3
a(lp75
I1344
aI0
aI3
a(lp76
I1344
aI0
aI3
a(lp77
I1344
aI0
aI3
a(lp78
I1344
aI0
aI3
aI0
aaaaaaaaaaaaaaaaaa(lp79
I-672
aI168
aI3
a(lp80
I-672
aI168
aI3
a(lp81
I-672
aI168
aI3
a(lp82
I-672
aI168
aI3
a(lp83
I-672
aI168
aI3
a(lp84
I-672
aI168
aI3
a(lp85
I-672
aI168
aI3
a(lp86
I-672
aI168
aI3
a(lp87
I-672
aI168
aI3
a(lp88
I-672
aI168
aI3
a(lp89
I-672
aI168
aI3
a(lp90
I-672
aI168
aI3
a(lp91
I-672
aI168
aI3
a(lp92
I-672
aI168
aI3
a(lp93
I-672
aI168
aI3
a(lp94
I-672
aI168
aI3
a(lp95
I-672
aI168
aI3
aI0
aaaaaaaaaaaaaaaaaa(lp96
I1344
aI168
aI3
a(lp97
I1344
aI168
aI3
a(lp98
I1344
aI168
aI3
a(lp99
I1344
aI168
aI3
a(lp100
I1344
aI168
aI3
a(lp101
I1344
aI168
aI3
a(lp102
I1344
aI168
aI3
a(lp103
I1344
aI168
aI3
a(lp104
I1344
aI168
aI3
a(lp105
I1344
aI168
aI3
a(lp106
I1344
aI168
aI3
a(lp107
I1344
aI168
aI3
a(lp108
I1344
aI168
aI3
a(lp109
I1344
aI168
aI3
a(lp110
I1344
aI168
aI3
a(lp111
I1344
aI168
aI3
a(lp112
I1344
aI168
aI3
aI0
aaaaaaaaaaaaaaaaaa(lp113
I336
aI-840
aI4
aI2
aa(lp114
I504
aI0
aI2
aI0
aF0.0
aF-30.0
aF0.1
aF0.1
aF7.162620000219917e-06
aF7.162620000219917e-06
aa(lp115
I168
aI0
aI2
aI0
aF0.0
aF-30.0
aF0.1
aF0.1
aF7.162620000219917e-06
aF7.162620000219917e-06
aa.