(lp1
(lp2
I168
aI168
aI0
a(lp3
I168
aI168
aI0
a(lp4
I168
aI168
aI0
a(lp5
I168
aI168
aI0
a(lp6
I168
aI168
aI0
a(lp7
I168
aI168
aI0
a(lp8
I168
aI168
aI0
a(lp9
I168
aI168
aI0
a(lp10
I168
aI168
aI0
a(lp11
I168
aI168
aI0
a(lp12
I168
aI168
aI0
a(lp13
I168
aI168
aI0
a(lp14
I168
aI168
aI0
a(lp15
I168
aI168
aI0
a(lp16
I168
aI168
aI0
a(lp17
I168
aI168
aI0
a(lp18
I168
aI168
aI0
aI0
aaaaaaaaaaaaaaaaaa(lp19
I336
aI168
aI0
a(lp20
I336
aI168
aI0
a(lp21
I336
aI168
aI0
a(lp22
I336
aI168
aI0
a(lp23
I336
aI168
aI0
a(lp24
I336
aI168
aI0
a(lp25
I336
aI168
aI0
a(lp26
I336
aI168
aI0
a(lp27
I336
aI168
aI0
a(lp28
I336
aI168
aI0
a(lp29
I336
aI168
aI0
a(lp30
I336
aI168
aI0
a(lp31
I336
aI168
aI0
a(lp32
I336
aI168
aI0
a(lp33
I336
aI168
aI0
a(lp34
I336
aI168
aI0
a(lp35
I336
aI168
aI0
aI0
aaaaaaaaaaaaaaaaaa(lp36
I504
aI168
aI0
a(lp37
I504
aI168
aI0
a(lp38
I504
aI168
aI0
a(lp39
I504
aI168
aI0
a(lp40
I504
aI168
aI0
a(lp41
I504
aI168
aI0
a(lp42
I504
aI168
aI0
a(lp43
I504
aI168
aI0
a(lp44
I504
aI168
aI0
a(lp45
I504
aI168
aI0
a(lp46
I504
aI168
aI0
a(lp47
I504
aI168
aI0
a(lp48
I504
aI168
aI0
a(lp49
I504
aI168
aI0
a(lp50
I504
aI168
aI0
a(lp51
I504
aI168
aI0
a(lp52
I504
aI168
aI0
aI0
aaaaaaaaaaaaaaaaaa(lp53
I840
aI168
aI0
a(lp54
I840
aI168
aI0
a(lp55
I840
aI168
aI0
a(lp56
I840
aI168
aI0
a(lp57
I840
aI168
aI0
a(lp58
I840
aI168
aI0
a(lp59
I840
aI168
aI0
a(lp60
I840
aI168
aI0
a(lp61
I840
aI168
aI0
a(lp62
I840
aI168
aI0
a(lp63
I840
aI168
aI0
a(lp64
I840
aI168
aI0
a(lp65
I840
aI168
aI0
a(lp66
I840
aI168
aI0
a(lp67
I840
aI168
aI0
a(lp68
I840
aI168
aI0
a(lp69
I840
aI168
aI0
aI0
aaaaaaaaaaaaaaaaaa(lp70
I1008
aI168
aI0
a(lp71
I1008
aI168
aI0
a(lp72
I1008
aI168
aI0
a(lp73
I1008
aI168
aI0
a(lp74
I1008
aI168
aI0
a(lp75
I1008
aI168
aI0
a(lp76
I1008
aI168
aI0
a(lp77
I1008
aI168
aI0
a(lp78
I1008
aI168
aI0
a(lp79
I1008
aI168
aI0
a(lp80
I1008
aI168
aI0
a(lp81
I1008
aI168
aI0
a(lp82
I1008
aI168
aI0
a(lp83
I1008
aI168
aI0
a(lp84
I1008
aI168
aI0
a(lp85
I1008
aI168
aI0
a(lp86
I1008
aI168
aI0
aI0
aaaaaaaaaaaaaaaaaa(lp87
I1344
aI168
aI0
a(lp88
I1344
aI168
aI0
a(lp89
I1344
aI168
aI0
a(lp90
I1344
aI168
aI0
a(lp91
I1344
aI168
aI0
a(lp92
I1344
aI168
aI0
a(lp93
I1344
aI168
aI0
a(lp94
I1344
aI168
aI0
a(lp95
I1344
aI168
aI0
a(lp96
I1344
aI168
aI0
a(lp97
I1344
aI168
aI0
a(lp98
I1344
aI168
aI0
a(lp99
I1344
aI168
aI0
a(lp100
I1344
aI168
aI0
a(lp101
I1344
aI168
aI0
a(lp102
I1344
aI168
aI0
a(lp103
I1344
aI168
aI0
aI0
aaaaaaaaaaaaaaaaaa(lp104
I1344
aI336
aI1
a(lp105
I1344
aI336
aI1
a(lp106
I1344
aI336
aI1
a(lp107
I1344
aI336
aI1
a(lp108
I1344
aI336
aI1
a(lp109
I1344
aI336
aI1
a(lp110
I1344
aI336
aI1
a(lp111
I1344
aI336
aI1
a(lp112
I1344
aI336
aI1
a(lp113
I1344
aI336
aI1
a(lp114
I1344
aI336
aI1
a(lp115
I1344
aI336
aI1
a(lp116
I1344
aI336
aI1
a(lp117
I1344
aI336
aI1
a(lp118
I1344
aI336
aI1
a(lp119
I1344
aI336
aI1
a(lp120
I1344
aI336
aI1
aI0
aaaaaaaaaaaaaaaaaa(lp121
I1176
aI336
aI1
a(lp122
I1176
aI336
aI1
a(lp123
I1176
aI336
aI1
a(lp124
I1176
aI336
aI1
a(lp125
I1176
aI336
aI1
a(lp126
I1176
aI336
aI1
a(lp127
I1176
aI336
aI1
a(lp128
I1176
aI336
aI1
a(lp129
I1176
aI336
aI1
a(lp130
I1176
aI336
aI1
a(lp131
I1176
aI336
aI1
a(lp132
I1176
aI336
aI1
a(lp133
I1176
aI336
aI1
a(lp134
I1176
aI336
aI1
a(lp135
I1176
aI336
aI1
a(lp136
I1176
aI336
aI1
a(lp137
I1176
aI336
aI1
aI0
aaaaaaaaaaaaaaaaaa(lp138
I1008
aI336
aI1
a(lp139
I1008
aI336
aI1
a(lp140
I1008
aI336
aI1
a(lp141
I1008
aI336
aI1
a(lp142
I1008
aI336
aI1
a(lp143
I1008
aI336
aI1
a(lp144
I1008
aI336
aI1
a(lp145
I1008
aI336
aI1
a(lp146
I1008
aI336
aI1
a(lp147
I1008
aI336
aI1
a(lp148
I1008
aI336
aI1
a(lp149
I1008
aI336
aI1
a(lp150
I1008
aI336
aI1
a(lp151
I1008
aI336
aI1
a(lp152
I1008
aI336
aI1
a(lp153
I1008
aI336
aI1
a(lp154
I1008
aI336
aI1
aI0
aaaaaaaaaaaaaaaaaa(lp155
I840
aI336
aI1
a(lp156
I840
aI336
aI1
a(lp157
I840
aI336
aI1
a(lp158
I840
aI336
aI1
a(lp159
I840
aI336
aI1
a(lp160
I840
aI336
aI1
a(lp161
I840
aI336
aI1
a(lp162
I840
aI336
aI1
a(lp163
I840
aI336
aI1
a(lp164
I840
aI336
aI1
a(lp165
I840
aI336
aI1
a(lp166
I840
aI336
aI1
a(lp167
I840
aI336
aI1
a(lp168
I840
aI336
aI1
a(lp169
I840
aI336
aI1
a(lp170
I840
aI336
aI1
a(lp171
I840
aI336
aI1
aI0
aaaaaaaaaaaaaaaaaa(lp172
I672
aI336
aI1
a(lp173
I672
aI336
aI1
a(lp174
I672
aI336
aI1
a(lp175
I672
aI336
aI1
a(lp176
I672
aI336
aI1
a(lp177
I672
aI336
aI1
a(lp178
I672
aI336
aI1
a(lp179
I672
aI336
aI1
a(lp180
I672
aI336
aI1
a(lp181
I672
aI336
aI1
a(lp182
I672
aI336
aI1
a(lp183
I672
aI336
aI1
a(lp184
I672
aI336
aI1
a(lp185
I672
aI336
aI1
a(lp186
I672
aI336
aI1
a(lp187
I672
aI336
aI1
a(lp188
I672
aI336
aI1
aI0
aaaaaaaaaaaaaaaaaa(lp189
I504
aI336
aI1
a(lp190
I504
aI336
aI1
a(lp191
I504
aI336
aI1
a(lp192
I504
aI336
aI1
a(lp193
I504
aI336
aI1
a(lp194
I504
aI336
aI1
a(lp195
I504
aI336
aI1
a(lp196
I504
aI336
aI1
a(lp197
I504
aI336
aI1
a(lp198
I504
aI336
aI1
a(lp199
I504
aI336
aI1
a(lp200
I504
aI336
aI1
a(lp201
I504
aI336
aI1
a(lp202
I504
aI336
aI1
a(lp203
I504
aI336
aI1
a(lp204
I504
aI336
aI1
a(lp205
I504
aI336
aI1
aI0
aaaaaaaaaaaaaaaaaa(lp206
I336
aI336
aI1
a(lp207
I336
aI336
aI1
a(lp208
I336
aI336
aI1
a(lp209
I336
aI336
aI1
a(lp210
I336
aI336
aI1
a(lp211
I336
aI336
aI1
a(lp212
I336
aI336
aI1
a(lp213
I336
aI336
aI1
a(lp214
I336
aI336
aI1
a(lp215
I336
aI336
aI1
a(lp216
I336
aI336
aI1
a(lp217
I336
aI336
aI1
a(lp218
I336
aI336
aI1
a(lp219
I336
aI336
aI1
a(lp220
I336
aI336
aI1
a(lp221
I336
aI336
aI1
a(lp222
I336
aI336
aI1
aI0
aaaaaaaaaaaaaaaaaa(lp223
I168
aI336
aI1
a(lp224
I168
aI336
aI1
a(lp225
I168
aI336
aI1
a(lp226
I168
aI336
aI1
a(lp227
I168
aI336
aI1
a(lp228
I168
aI336
aI1
a(lp229
I168
aI336
aI1
a(lp230
I168
aI336
aI1
a(lp231
I168
aI336
aI1
a(lp232
I168
aI336
aI1
a(lp233
I168
aI336
aI1
a(lp234
I168
aI336
aI1
a(lp235
I168
aI336
aI1
a(lp236
I168
aI336
aI1
a(lp237
I168
aI336
aI1
a(lp238
I168
aI336
aI1
a(lp239
I168
aI336
aI1
aI0
aaaaaaaaaaaaaaaaaa(lp240
I0
aI336
aI1
a(lp241
I0
aI336
aI1
a(lp242
I0
aI336
aI1
a(lp243
I0
aI336
aI1
a(lp244
I0
aI336
aI1
a(lp245
I0
aI336
aI1
a(lp246
I0
aI336
aI1
a(lp247
I0
aI336
aI1
a(lp248
I0
aI336
aI1
a(lp249
I0
aI336
aI1
a(lp250
I0
aI336
aI1
a(lp251
I0
aI336
aI1
a(lp252
I0
aI336
aI1
a(lp253
I0
aI336
aI1
a(lp254
I0
aI336
aI1
a(lp255
I0
aI336
aI1
a(lp256
I0
aI336
aI1
aI0
aaaaaaaaaaaaaaaaaa(lp257
I-168
aI336
aI1
a(lp258
I-168
aI336
aI1
a(lp259
I-168
aI336
aI1
a(lp260
I-168
aI336
aI1
a(lp261
I-168
aI336
aI1
a(lp262
I-168
aI336
aI1
a(lp263
I-168
aI336
aI1
a(lp264
I-168
aI336
aI1
a(lp265
I-168
aI336
aI1
a(lp266
I-168
aI336
aI1
a(lp267
I-168
aI336
aI1
a(lp268
I-168
aI336
aI1
a(lp269
I-168
aI336
aI1
a(lp270
I-168
aI336
aI1
a(lp271
I-168
aI336
aI1
a(lp272
I-168
aI336
aI1
a(lp273
I-168
aI336
aI1
aI0
aaaaaaaaaaaaaaaaaa(lp274
I-336
aI336
aI1
a(lp275
I-336
aI336
aI1
a(lp276
I-336
aI336
aI1
a(lp277
I-336
aI336
aI1
a(lp278
I-336
aI336
aI1
a(lp279
I-336
aI336
aI1
a(lp280
I-336
aI336
aI1
a(lp281
I-336
aI336
aI1
a(lp282
I-336
aI336
aI1
a(lp283
I-336
aI336
aI1
a(lp284
I-336
aI336
aI1
a(lp285
I-336
aI336
aI1
a(lp286
I-336
aI336
aI1
a(lp287
I-336
aI336
aI1
a(lp288
I-336
aI336
aI1
a(lp289
I-336
aI336
aI1
a(lp290
I-336
aI336
aI1
aI0
aaaaaaaaaaaaaaaaaa(lp291
I-504
aI336
aI1
a(lp292
I-504
aI336
aI1
a(lp293
I-504
aI336
aI1
a(lp294
I-504
aI336
aI1
a(lp295
I-504
aI336
aI1
a(lp296
I-504
aI336
aI1
a(lp297
I-504
aI336
aI1
a(lp298
I-504
aI336
aI1
a(lp299
I-504
aI336
aI1
a(lp300
I-504
aI336
aI1
a(lp301
I-504
aI336
aI1
a(lp302
I-504
aI336
aI1
a(lp303
I-504
aI336
aI1
a(lp304
I-504
aI336
aI1
a(lp305
I-504
aI336
aI1
a(lp306
I-504
aI336
aI1
a(lp307
I-504
aI336
aI1
aI0
aaaaaaaaaaaaaaaaaa(lp308
I-672
aI336
aI1
a(lp309
I-672
aI336
aI1
a(lp310
I-672
aI336
aI1
a(lp311
I-672
aI336
aI1
a(lp312
I-672
aI336
aI1
a(lp313
I-672
aI336
aI1
a(lp314
I-672
aI336
aI1
a(lp315
I-672
aI336
aI1
a(lp316
I-672
aI336
aI1
a(lp317
I-672
aI336
aI1
a(lp318
I-672
aI336
aI1
a(lp319
I-672
aI336
aI1
a(lp320
I-672
aI336
aI1
a(lp321
I-672
aI336
aI1
a(lp322
I-672
aI336
aI1
a(lp323
I-672
aI336
aI1
a(lp324
I-672
aI336
aI1
aI0
aaaaaaaaaaaaaaaaaa(lp325
I-672
aI168
aI0
a(lp326
I-672
aI168
aI0
a(lp327
I-672
aI168
aI0
a(lp328
I-672
aI168
aI0
a(lp329
I-672
aI168
aI0
a(lp330
I-672
aI168
aI0
a(lp331
I-672
aI168
aI0
a(lp332
I-672
aI168
aI0
a(lp333
I-672
aI168
aI0
a(lp334
I-672
aI168
aI0
a(lp335
I-672
aI168
aI0
a(lp336
I-672
aI168
aI0
a(lp337
I-672
aI168
aI0
a(lp338
I-672
aI168
aI0
a(lp339
I-672
aI168
aI0
a(lp340
I-672
aI168
aI0
a(lp341
I-672
aI168
aI0
aI0
aaaaaaaaaaaaaaaaaa(lp342
I-168
aI168
aI0
a(lp343
I-168
aI168
aI0
a(lp344
I-168
aI168
aI0
a(lp345
I-168
aI168
aI0
a(lp346
I-168
aI168
aI0
a(lp347
I-168
aI168
aI0
a(lp348
I-168
aI168
aI0
a(lp349
I-168
aI168
aI0
a(lp350
I-168
aI168
aI0
a(lp351
I-168
aI168
aI0
a(lp352
I-168
aI168
aI0
a(lp353
I-168
aI168
aI0
a(lp354
I-168
aI168
aI0
a(lp355
I-168
aI168
aI0
a(lp356
I-168
aI168
aI0
a(lp357
I-168
aI168
aI0
a(lp358
I-168
aI168
aI0
aI0
aaaaaaaaaaaaaaaaaa(lp359
I-336
aI168
aI0
a(lp360
I-336
aI168
aI0
a(lp361
I-336
aI168
aI0
a(lp362
I-336
aI168
aI0
a(lp363
I-336
aI168
aI0
a(lp364
I-336
aI168
aI0
a(lp365
I-336
aI168
aI0
a(lp366
I-336
aI168
aI0
a(lp367
I-336
aI168
aI0
a(lp368
I-336
aI168
aI0
a(lp369
I-336
aI168
aI0
a(lp370
I-336
aI168
aI0
a(lp371
I-336
aI168
aI0
a(lp372
I-336
aI168
aI0
a(lp373
I-336
aI168
aI0
a(lp374
I-336
aI168
aI0
a(lp375
I-336
aI168
aI0
aI0
aaaaaaaaaaaaaaaaaa(lp376
I-504
aI168
aI4
a(lp377
I-504
aI168
aI4
a(lp378
I-504
aI168
aI4
a(lp379
I-504
aI168
aI4
a(lp380
I-504
aI168
aI4
a(lp381
I-504
aI168
aI4
a(lp382
I-504
aI168
aI4
a(lp383
I-504
aI168
aI4
a(lp384
I-504
aI168
aI4
a(lp385
I-504
aI168
aI4
a(lp386
I-504
aI168
aI4
a(lp387
I-504
aI168
aI4
a(lp388
I-504
aI168
aI4
a(lp389
I-504
aI168
aI4
a(lp390
I-504
aI168
aI4
a(lp391
I-504
aI168
aI4
a(lp392
I-504
aI168
aI4
aI0
aaaaaaaaaaaaaaaaaa(lp393
I-336
aI-336
aI4
a(lp394
I-336
aI-336
aI4
a(lp395
I-336
aI-336
aI4
a(lp396
I-336
aI-336
aI4
a(lp397
I-336
aI-336
aI4
a(lp398
I-336
aI-336
aI4
a(lp399
I-336
aI-336
aI4
a(lp400
I-336
aI-336
aI4
a(lp401
I-336
aI-336
aI4
a(lp402
I-336
aI-336
aI4
a(lp403
I-336
aI-336
aI4
a(lp404
I-336
aI-336
aI4
a(lp405
I-336
aI-336
aI4
a(lp406
I-336
aI-336
aI4
a(lp407
I-336
aI-336
aI4
a(lp408
I-336
aI-336
aI4
a(lp409
I-336
aI-336
aI4
aI0
aaaaaaaaaaaaaaaaaa(lp410
I1176
aI168
aI4
a(lp411
I1176
aI168
aI4
a(lp412
I1176
aI168
aI4
a(lp413
I1176
aI168
aI4
a(lp414
I1176
aI168
aI4
a(lp415
I1176
aI168
aI4
a(lp416
I1176
aI168
aI4
a(lp417
I1176
aI168
aI4
a(lp418
I1176
aI168
aI4
a(lp419
I1176
aI168
aI4
a(lp420
I1176
aI168
aI4
a(lp421
I1176
aI168
aI4
a(lp422
I1176
aI168
aI4
a(lp423
I1176
aI168
aI4
a(lp424
I1176
aI168
aI4
a(lp425
I1176
aI168
aI4
a(lp426
I1176
aI168
aI4
aI0
aaaaaaaaaaaaaaaaaa(lp427
I1008
aI-336
aI4
aI0
aa(lp428
I336
aI-504
aI4
aI0
aa(lp429
I336
aI0
aI3
aI0
aa(lp430
I-672
aI0
aI3
a(lp431
I-672
aI0
aI3
a(lp432
I-672
aI0
aI3
a(lp433
I-672
aI0
aI3
a(lp434
I-672
aI0
aI3
a(lp435
I-672
aI0
aI3
a(lp436
I-672
aI0
aI3
a(lp437
I-672
aI0
aI3
a(lp438
I-672
aI0
aI3
a(lp439
I-672
aI0
aI3
a(lp440
I-672
aI0
aI3
a(lp441
I-672
aI0
aI3
a(lp442
I-672
aI0
aI3
a(lp443
I-672
aI0
aI3
a(lp444
I-672
aI0
aI3
a(lp445
I-672
aI0
aI3
a(lp446
I-672
aI0
aI3
aI0
aaaaaaaaaaaaaaaaaa(lp447
I1344
aI0
aI3
a(lp448
I1344
aI0
aI3
a(lp449
I1344
aI0
aI3
a(lp450
I1344
aI0
aI3
a(lp451
I1344
aI0
aI3
a(lp452
I1344
aI0
aI3
a(lp453
I1344
aI0
aI3
a(lp454
I1344
aI0
aI3
a(lp455
I1344
aI0
aI3
a(lp456
I1344
aI0
aI3
a(lp457
I1344
aI0
aI3
a(lp458
I1344
aI0
aI3
a(lp459
I1344
aI0
aI3
a(lp460
I1344
aI0
aI3
a(lp461
I1344
aI0
aI3
a(lp462
I1344
aI0
aI3
a(lp463
I1344
aI0
aI3
aI0
aaaaaaaaaaaaaaaaaa(lp464
I-672
aI168
aI3
a(lp465
I-672
aI168
aI3
a(lp466
I-672
aI168
aI3
a(lp467
I-672
aI168
aI3
a(lp468
I-672
aI168
aI3
a(lp469
I-672
aI168
aI3
a(lp470
I-672
aI168
aI3
a(lp471
I-672
aI168
aI3
a(lp472
I-672
aI168
aI3
a(lp473
I-672
aI168
aI3
a(lp474
I-672
aI168
aI3
a(lp475
I-672
aI168
aI3
a(lp476
I-672
aI168
aI3
a(lp477
I-672
aI168
aI3
a(lp478
I-672
aI168
aI3
a(lp479
I-672
aI168
aI3
a(lp480
I-672
aI168
aI3
aI0
aaaaaaaaaaaaaaaaaa(lp481
I1344
aI168
aI3
a(lp482
I1344
aI168
aI3
a(lp483
I1344
aI168
aI3
a(lp484
I1344
aI168
aI3
a(lp485
I1344
aI168
aI3
a(lp486
I1344
aI168
aI3
a(lp487
I1344
aI168
aI3
a(lp488
I1344
aI168
aI3
a(lp489
I1344
aI168
aI3
a(lp490
I1344
aI168
aI3
a(lp491
I1344
aI168
aI3
a(lp492
I1344
aI168
aI3
a(lp493
I1344
aI168
aI3
a(lp494
I1344
aI168
aI3
a(lp495
I1344
aI168
aI3
a(lp496
I1344
aI168
aI3
a(lp497
I1344
aI168
aI3
aI0
aaaaaaaaaaaaaaaaaa(lp498
I336
aI-840
aI4
aI2
aa(lp499
I504
aI0
aI2
aI0
aF0
aF-20
aF0.040000000000000008
aF0.059999999999999998
aF-1.5707500000000001
aF-0.62830000000000008
aa(lp500
I168
aI0
aI2
aI0
aF0
aF-20
aF0.10000000000000001
aF0.059999999999999998
aF7.1626200002199172e-06
aF-0.62830000000000008
aa.