(lp0
(lp1
I168
aI336
aI1
aI0
aa(lp2
I336
aI336
aI1
aI0
aa(lp3
I504
aI336
aI1
aI0
aa(lp4
I336
aI168
aI3
aI0
aa(lp5
I168
aI168
aI4
aI1
aa(lp6
I504
aI168
aI4
aI1
aa(lp7
I840
aI336
aI0
aI0
aa(lp8
I-168
aI336
aI0
aI0
aa(lp9
I1008
aI168
aI1
aI0
aa(lp10
I1176
aI168
aI1
aI0
aa(lp11
I-336
aI168
aI1
aI0
aa(lp12
I-504
aI168
aI1
aI0
aa(lp13
I1176
aI0
aI3
aI0
aa(lp14
I-504
aI0
aI3
aI0
aa(lp15
I1008
aI0
aI4
aI2
aa(lp16
I-336
aI0
aI4
aI2
aa.